target datalayout = "e-m:e-p270:32:32-p271:32:32-p272:64:64-i64:64-i128:128-f80:128-n8:16:32:64-S128"
target triple = "x86_64-pc-linux-gnu"

%struct.crypto_ex_data_st = type { ptr }
%struct.ssl_session_st = type { i32, i32, i32, i32, [48 x i8], i32, [32 x i8], i32, [32 x i8], ptr, ptr, ptr, i64, i64, i64, ptr, %struct.crypto_ex_data_st, ptr, ptr, ptr, ptr, i64, i64, ptr, i64, ptr, [32 x i8], [64 x i8], i32, i32, i8 }
%struct.ssl_st = type { i32, i16, i16, ptr, ptr, ptr, ptr, ptr, i32, i32, ptr, ptr, i32, i32, ptr, ptr, ptr, ptr, ptr, ptr, ptr, ptr, i32, i32, [32 x i8], ptr, ptr, ptr, ptr, ptr, ptr, ptr, i64, %struct.crypto_ex_data_st, ptr, i32, i32, i32, i32, i16, ptr, i32, i64, ptr, ptr, ptr, ptr, ptr, ptr, i32, i32, ptr, ptr, i8, i8, i32 }

; Function Attrs: nounwind uwtable
define hidden void @SSL_get0_signed_cert_timestamp_list(ptr noundef %0, ptr noundef %1, ptr noundef %2) #0 {
  %4 = alloca ptr, align 8
  %5 = alloca ptr, align 8
  %6 = alloca ptr, align 8
  %7 = alloca ptr, align 8
  %8 = alloca i32, align 4
  store ptr %0, ptr %4, align 8, !tbaa !80
  store ptr %1, ptr %5, align 8, !tbaa !210
  store ptr %2, ptr %6, align 8, !tbaa !172
  call void @llvm.lifetime.start.p0(i64 8, ptr %7) #8
  %9 = load ptr, ptr %4, align 8, !tbaa !80
  %10 = getelementptr inbounds nuw %struct.ssl_st, ptr %9, i32 0, i32 25
  %11 = load ptr, ptr %10, align 8, !tbaa !133
  store ptr %11, ptr %7, align 8, !tbaa !54
  %12 = load ptr, ptr %6, align 8, !tbaa !172
  store i64 0, ptr %12, align 8, !tbaa !174
  %13 = load ptr, ptr %5, align 8, !tbaa !210
  store ptr null, ptr %13, align 8, !tbaa !55
  %14 = load ptr, ptr %4, align 8, !tbaa !80
  %15 = getelementptr inbounds nuw %struct.ssl_st, ptr %14, i32 0, i32 54
  %16 = load i8, ptr %15, align 1
  %17 = lshr i8 %16, 1
  %18 = and i8 %17, 1
  %19 = zext i8 %18 to i32
  %20 = icmp ne i32 %19, 0
  br i1 %20, label %29, label %21

21:                                               ; preds = %3
  %22 = load ptr, ptr %7, align 8, !tbaa !54
  %23 = icmp ne ptr %22, null
  br i1 %23, label %24, label %29

24:                                               ; preds = %21
  %25 = load ptr, ptr %7, align 8, !tbaa !54
  %26 = getelementptr inbounds nuw %struct.ssl_session_st, ptr %25, i32 0, i32 23
  %27 = load ptr, ptr %26, align 8, !tbaa !212
  %28 = icmp ne ptr %27, null
  br i1 %28, label %30, label %29

29:                                               ; preds = %24, %21, %3
  store i32 1, ptr %8, align 4
  br label %39

30:                                               ; preds = %24
  %31 = load ptr, ptr %7, align 8, !tbaa !54
  %32 = getelementptr inbounds nuw %struct.ssl_session_st, ptr %31, i32 0, i32 23
  %33 = load ptr, ptr %32, align 8, !tbaa !212
  %34 = load ptr, ptr %5, align 8, !tbaa !210
  store ptr %33, ptr %34, align 8, !tbaa !55
  %35 = load ptr, ptr %7, align 8, !tbaa !54
  %36 = getelementptr inbounds nuw %struct.ssl_session_st, ptr %35, i32 0, i32 22
  %37 = load i64, ptr %36, align 8, !tbaa !213
  %38 = load ptr, ptr %6, align 8, !tbaa !172
  store i64 %37, ptr %38, align 8, !tbaa !174
  store i32 0, ptr %8, align 4
  br label %39

39:                                               ; preds = %30, %29
  call void @llvm.lifetime.end.p0(i64 8, ptr %7) #8
  %40 = load i32, ptr %8, align 4
  switch i32 %40, label %42 [
    i32 0, label %41
    i32 1, label %41
  ]

41:                                               ; preds = %39, %39
  ret void

42:                                               ; preds = %39
  unreachable
}