; Function Attrs: mustprogress nofree norecurse nosync nounwind willreturn memory(read, argmem: readwrite, inaccessiblemem: none) uwtable
define hidden void @SSL_get0_signed_cert_timestamp_list(ptr noundef readonly captures(none) %0, ptr noundef writeonly captures(none) initializes((0, 8)) %1, ptr noundef writeonly captures(none) initializes((0, 8)) %2) local_unnamed_addr #4 {
  %4 = getelementptr inbounds nuw i8, ptr %0, i64 184
  %5 = load ptr, ptr %4, align 8, !tbaa !122
  store i64 0, ptr %2, align 8, !tbaa !160
  store ptr null, ptr %1, align 8, !tbaa !186
  %6 = getelementptr inbounds nuw i8, ptr %0, i64 385
  %7 = load i8, ptr %6, align 1
  %8 = and i8 %7, 2
  %9 = icmp eq i8 %8, 0
  %10 = icmp ne ptr %5, null
  %or.cond = select i1 %9, i1 %10, i1 false
  br i1 %or.cond, label %11, label %17

11:                                               ; preds = %3
  %12 = getelementptr inbounds nuw i8, ptr %5, i64 248
  %13 = load ptr, ptr %12, align 8, !tbaa !190
  %.not = icmp eq ptr %13, null
  br i1 %.not, label %17, label %14

14:                                               ; preds = %11
  store ptr %13, ptr %1, align 8, !tbaa !186
  %15 = getelementptr inbounds nuw i8, ptr %5, i64 240
  %16 = load i64, ptr %15, align 8, !tbaa !191
  store i64 %16, ptr %2, align 8, !tbaa !160
  br label %17

17:                                               ; preds = %3, %11, %14
  ret void
}